; Function Attrs: mustprogress nofree norecurse nosync nounwind willreturn memory(write, argmem: readwrite, inaccessiblemem: none) uwtable
define internal noundef zeroext i1 @SDL_HIDAPI_HapticDriverLg4ff_SetGain(ptr noundef readonly captures(none) %0, i32 noundef %1) #2 {
  %3 = getelementptr inbounds nuw i8, ptr %0, i64 24
  %4 = load ptr, ptr %3, align 8
  %5 = tail call i32 @llvm.smax.i32(i32 %1, i32 0)
  %6 = tail call i32 @llvm.umin.i32(i32 %5, i32 100)
  %7 = mul nuw nsw i32 %6, 65535
  %8 = udiv i32 %7, 100
  %9 = getelementptr inbounds nuw i8, ptr %4, i64 2640
  store i32 %8, ptr %9, align 8
  ret i1 true
}